; Function Attrs: mustprogress nounwind uwtable
define hidden void @_ZN6hermes3hbc20BCProviderFromBuffer23adviseStringTableRandomEv(ptr nocapture noundef nonnull readonly align 8 dereferenceable(376) %this) unnamed_addr #0 align 2 {
entry:
  %stringTableEntries_ = getelementptr inbounds i8, ptr %this, i64 304
  %0 = load ptr, ptr %stringTableEntries_, align 8
  %overflowStringTableEntries_ = getelementptr inbounds i8, ptr %this, i64 312
  %1 = load ptr, ptr %overflowStringTableEntries_, align 8
  %Length.i1 = getelementptr inbounds i8, ptr %this, i64 320
  %2 = load i64, ptr %Length.i1, align 8
  %add.ptr.i = getelementptr inbounds %"struct.hermes::hbc::OverflowStringTableEntry", ptr %1, i64 %2
  %sub.ptr.lhs.cast = ptrtoint ptr %add.ptr.i to i64
  %stringStorage_ = getelementptr inbounds i8, ptr %this, i64 56
  %3 = load ptr, ptr %stringStorage_, align 8
  %Length.i2 = getelementptr inbounds i8, ptr %this, i64 64
  %4 = load i64, ptr %Length.i2, align 8
  %call.i = tail call noundef i64 @_ZN6hermes8oscompat9page_sizeEv() #19
  %add.ptr.i3 = getelementptr inbounds i8, ptr %0, i64 1
  %5 = ptrtoint ptr %add.ptr.i3 to i64
  %add.i.i = add i64 %5, -1
  %sub.i.i = add i64 %add.i.i, %call.i
  %not.i.i = sub i64 0, %call.i
  %and.i.i = and i64 %sub.i.i, %not.i.i
  %sub.i = sub i64 %and.i.i, %call.i
  %6 = inttoptr i64 %sub.i to ptr
  %add.i = sub i64 %sub.ptr.lhs.cast, %sub.i
  %call.i4 = tail call noundef i64 @_ZN6hermes8oscompat9page_sizeEv() #19
  %add.ptr.i5 = getelementptr inbounds i8, ptr %3, i64 1
  %7 = ptrtoint ptr %add.ptr.i5 to i64
  %add.i.i6 = add i64 %7, -1
  %sub.i.i7 = add i64 %add.i.i6, %call.i4
  %not.i.i8 = sub i64 0, %call.i4
  %and.i.i9 = and i64 %sub.i.i7, %not.i.i8
  %sub.i10 = sub i64 %and.i.i9, %call.i4
  %8 = inttoptr i64 %sub.i10 to ptr
  %sub.ptr.lhs.cast.i11 = ptrtoint ptr %3 to i64
  %sub.ptr.sub.i12 = add i64 %4, %sub.ptr.lhs.cast.i11
  %add.i13 = sub i64 %sub.ptr.sub.i12, %sub.i10
  %call9 = tail call noundef zeroext i1 @_ZN6hermes8oscompat10vm_madviseEPvmNS0_7MAdviceE(ptr noundef %6, i64 noundef %add.i, i32 noundef 0) #19
  %call10 = tail call noundef zeroext i1 @_ZN6hermes8oscompat10vm_madviseEPvmNS0_7MAdviceE(ptr noundef %8, i64 noundef %add.i13, i32 noundef 0) #19
  ret void
}